(dp0
Vsg_bundle_data
p1
NsVsg_version_data
p2
(dp3
Vtype
p4
VCustomNonProjectEntity01
p5
sVid
p6
I2387
sVcode
p7
Vv0.21.0
p8
sVsg_status_list
p9
Vprod
p10
sVdescription
p11
VRebranding component for Flow Production Tracking
p12
sVtags
p13
(lp14
sVsg_detailed_release_notes
p15
NsVsg_documentation
p16
(dp17
Vurl
p18
Vhttps://help.autodesk.com/view/SGDEV/ENU/?contextId=SA_INTEGRATIONS_USER_GUIDE
p19
sVname
p20
VDocumentation
p21
sVcontent_type
p22
NsVlink_type
p23
Vweb
p24
sg4
VAttachment
p25
sg6
I32459
ssVsg_payload
p26
(dp27
g18
Vhttps://s3-proxy.shotgunstudio.com/d18c13bf0e59a9a82f18be518a1b6b508bcbd774/4befc09fb0108c91605d269a0894f4e26e19feee/sgtk_core_v0.21.0.zip?response-content-disposition=filename%3D%22sgtk_core_v0.21.0.zip%22&x-amz-meta-user-id=42&x-amz-meta-user-type=ApiUser&X-Amz-Algorithm=AWS4-HMAC-SHA256&X-Amz-Credential=ASIAYJG6Z4JIXE4DYK2M%2F20240403%2Fus-west-2%2Fs3%2Faws4_request&X-Amz-Date=20240403T171300Z&X-Amz-SignedHeaders=host&X-Amz-Expires=900&X-Amz-Security-Token=IQoJb3JpZ2luX2VjEFEaCXVzLWVhc3QtMSJGMEQCIHUtEOcvYuP6RFSVxexecm7Ri5igSLbJBFxd72WLNKgMAiBmzWIIOfZrUynPpR3S6f3K8u8IIAqLtNctFmQ9YgF1ByqYAgh6EAAaDDU2OTU1MDQzMDgwMSIM%2Bvy8qIwv73AFDgS3KvUB07Nx48Aw4RA7%2BuKECgYMTJotKv28GUIepF3vzuJzUecN85XKIBRmWocsVGXN89eV8vuwvsFxQy1cLdEU8wGTUVe3uHv2NkLlLmV5a6XZsfXA1oS%2B1lB%2F5DuzMFpF%2BY%2FDpQNv7%2FNyN21ib2budwJbXzzTWfDTh40%2FGX5RY7JIaQ54h%2BUs0yQ%2BfbF1Q9uu%2FIdrdHn0PMaX6JtkxIKoYRkARB9c7SNRSqlIRaWZzNBSShlGoixye%2BYMcMpj3AL6EMq2SvbW9wdJ%2B4fmcefTO%2FKykGbf8FTBNXEKg1Ukq%2FZ90c8%2BxOAq8PXbgUaAYy28%2FsIpB5SdGMEwxoy2sAY6ngGYvJXi8BBbJ%2FqVNS1XpBifM4JhjuYTtDHte68vEoYItivzktXWV%2Bf5D%2FtbLSe8es%2BeGTEcl2hGSJxnfhntDm5BtT7KBVQ4adCvyYehv84Opw9ToTQ5X%2F0qfYp%2BzCIZaRL7JDldmt5XZQp2DSe4PKRXzkNCWDvlgJu1toJwqd2pRBuEsL%2FxatyAqkTUZJLphxp8wvlnj88dvEDL%2BW%2B6iA%3D%3D&X-Amz-Signature=dc0bfd292355a264cff6bc51e18ffc48d6cb7485d33c92362ab19f1c9faa7c3d
p28
sg20
Vsgtk_core_v0.21.0.zip
p29
sg22
Vapplication/zip
p30
sg23
Vupload
p31
sg4
VAttachment
p32
sg6
I32460
sss.