(dp0
Vsg_bundle_data
p1
(dp2
Vtype
p3
VCustomNonProjectEntity13
p4
sVid
p5
I1
sVsg_system_name
p6
Vtk-framework-widget
p7
sVsg_status_list
p8
Vhidden
p9
sVsg_deprecation_message
p10
NssVsg_version_data
p11
(dp12
Vtype
p13
VCustomNonProjectEntity09
p14
sVid
p15
I938
sVcode
p16
Vv0.2.8
p17
sVsg_status_list
p18
Vprod
p19
sVdescription
p20
VAdds Python 3 support.
p21
sVtags
p22
(lp23
sVsg_detailed_release_notes
p24
NsVsg_documentation
p25
NsVsg_payload
p26
(dp27
Vurl
p28
Vhttps://s3-proxy.shotgunstudio.com/d18c13bf0e59a9a82f18be518a1b6b508bcbd774/5bf12ffba81768a80e4c3fb738de8f60794b139b/tk-framework-widget_v0.2.8.zip?response-content-disposition=filename%3D%22tk-framework-widget_v0.2.8.zip%22&x-amz-meta-user-id=42&x-amz-meta-user-type=ApiUser&X-Amz-Algorithm=AWS4-HMAC-SHA256&X-Amz-Credential=ASIAYJG6Z4JIZ5YKXRYU%2F20231004%2Fus-west-2%2Fs3%2Faws4_request&X-Amz-Date=20231004T171022Z&X-Amz-SignedHeaders=host&X-Amz-Expires=900&X-Amz-Security-Token=IQoJb3JpZ2luX2VjEEEaCXVzLWVhc3QtMSJHMEUCIBf3xYz6l1wCDIb1cnFyi09Jrq7BrIeR%2Fn3TSvGeznfrAiEAtXe0iFNpzhAn4sIYNDnIOptL8JhgxytOz3Sueg2ZuoUqmAIIShAAGgw1Njk1NTA0MzA4MDEiDHF6m4lJtJ0pMC8XPCr1AQvsatb9o1cYbmXoconUtzAcDVpF%2BiGk0IMJj8%2FU8LeYI1B71jLVSOHcS%2B%2BcU5X9KCYqG8YrNlTe4jk6D7IEdepJPHbtY2FgHwn%2FVHLDiCGKHoReXkpo0%2FuVFYFix%2FIvcFmR0CAmAZ%2Fx%2FZIswfnDPmDaYxfdhdzK2ZLvsitnOEvjEokzTj8OitQep%2F%2B85nt7mNQHl%2Bk1IWirhO1mCLQdy4OMVGJ3JotFSf3UDoSzoIJOELv%2BxZ3O5y4%2BpOfvz1Nc4lmnu8y1sSVmIKuNfQEnyixK6v8Kmv9f5n1zDjVHD7KyceDSsme1jpocBXxzcZ2hjaTD3NUEMK2l9qgGOp0ByMffBmfJDOgcVvrX52zA4CJRGRaVqLIJgjmQFsEy0%2BtmNh1pDYOnF8Usmo6Wl%2FYmrdC4t%2Ff1UlztknebezH9rCE%2FULPs4Snw4Og6cMd1ATa5MrTqpKvnMLR3%2FTEfCPfGHpG9qE9ET1mMgsZcTFDbRFmu2Bn7ur7kXagp03V9059SSJTmk3iyfbheu5Prf0wlBWrRQW4S%2BJFEDXM%2B4g%3D%3D&X-Amz-Signature=476666b0ff99cec1e7ccd72dc64d5529ba9853f10d7bf1b00bf0ecefb64bbcaf
p29
sVname
p30
Vtk-framework-widget_v0.2.8.zip
p31
sVcontent_type
p32
Vapplication/zip
p33
sVlink_type
p34
Vupload
p35
sg13
VAttachment
p36
sg15
I21722
sss.