(dp0
Vsg_bundle_data
p1
(dp2
Vtype
p3
VCustomNonProjectEntity03
p4
sVid
p5
I50
sVsg_system_name
p6
Vtk-mari
p7
sVsg_status_list
p8
Vdepl
p9
sVsg_deprecation_message
p10
NssVsg_version_data
p11
(dp12
Vtype
p13
VCustomNonProjectEntity04
p14
sVid
p15
I4775
sVcode
p16
Vv1.4.0
p17
sVsg_status_list
p18
Vprod
p19
sVdescription
p20
VRebranding component for Flow Production Tracking
p21
sVtags
p22
(lp23
sVsg_detailed_release_notes
p24
NsVsg_documentation
p25
(dp26
Vurl
p27
Vhttps://developer.shotgridsoftware.com/219041618
p28
sVname
p29
VDocumentation
p30
sVcontent_type
p31
NsVlink_type
p32
Vweb
p33
sg13
VAttachment
p34
sg15
I32378
ssVsg_payload
p35
(dp36
g27
Vhttps://s3-proxy.shotgunstudio.com/d18c13bf0e59a9a82f18be518a1b6b508bcbd774/1aa43fc271754f255a79b3a9cbe9da2fb4fb4b1f/tk-mari_v1.4.0.zip?response-content-disposition=filename%3D%22tk-mari_v1.4.0.zip%22&x-amz-meta-user-id=42&x-amz-meta-user-type=ApiUser&X-Amz-Algorithm=AWS4-HMAC-SHA256&X-Amz-Credential=ASIAYJG6Z4JI5P3KNJXL%2F20240403%2Fus-west-2%2Fs3%2Faws4_request&X-Amz-Date=20240403T171048Z&X-Amz-SignedHeaders=host&X-Amz-Expires=900&X-Amz-Security-Token=IQoJb3JpZ2luX2VjEFEaCXVzLWVhc3QtMSJGMEQCIEVDtIIGVVPnaSn0gk8Qr612nTRkgFfI8nqIzTavoSEIAiA%2FgFHWe7AZyrCbY9O5q9PTZ2sNjy8KXNTU9hnPC6elYyqYAgh6EAAaDDU2OTU1MDQzMDgwMSIMJtkypvM3kVGLuXOPKvUBv4NU5U4sMqfazhWl37qvLGzTscKMxifI55LoaPRdC2PcvI5phhnD%2BPIiW3SwAP8SOeAJMXLL0w04P6FRdNTJHbE30eQvPMD5fwSGEok8XEwmcZRK4gsb%2B5maP46OT2WopVnrYwjTYzDxWjzypDSnqsWAeJ9iZaX95ZzxCziwkMX7m9Iqk2ITqrRQ1EPCYBKIPO0iYLBNnoo%2FNZ3zxKQwt%2FvyyatRvs46XPpCh4HSe6p83kvCjRBc5EZFI27L%2BZN0Wbrle%2BUTBwzNQjKZ%2F32pR%2FlaNgr4k%2BjXtEo5fg0iXFRB9%2BZdISZSzdyLWItooHAgkMpaPY4wg4y2sAY6ngGBRI552VKPgwjPrVYAM%2BvbjH%2B7s5GWwO%2BJq7%2FJ%2BGkTPec%2FCyobbVdmyBe4jVJ4IOTFH9CjmY3AP1gJy9NlTPnto1v2gJN%2FvwefeeDXcxJDk3sF074Rheuf2n%2FhUmdNzQsRmPZe6pcBM3SRkvpdMVcSz7T3wMAOzvlZWj7C9K6ytikyvfYVK0lo5pz73il6m%2B02MRN53U7PUsL3Hp5CiA%3D%3D&X-Amz-Signature=cedff65598409afa3d290764b492352b7da4b053aa564cbd812b1e4d760b4778
p37
sg29
Vtk-mari_v1.4.0.zip
p38
sg31
Vapplication/zip
p39
sg32
Vupload
p40
sg13
VAttachment
p41
sg15
I32379
sss.