(dp0
Vsg_bundle_data
p1
(dp2
Vtype
p3
VCustomNonProjectEntity13
p4
sVid
p5
I84
sVsg_system_name
p6
Vtk-framework-aliastranslations
p7
sVsg_status_list
p8
Vdepl
p9
sVsg_deprecation_message
p10
NssVsg_version_data
p11
(dp12
Vtype
p13
VCustomNonProjectEntity09
p14
sVid
p15
I4085
sVcode
p16
Vv0.3.0
p17
sVsg_status_list
p18
Vrev
p19
sVdescription
p20
VRebranding component for Flow Production Tracking
p21
sVtags
p22
(lp23
sVsg_detailed_release_notes
p24
NsVsg_documentation
p25
NsVsg_payload
p26
(dp27
Vurl
p28
Vhttps://s3-proxy.shotgunstudio.com/d18c13bf0e59a9a82f18be518a1b6b508bcbd774/3ba05fed84e1efe77e56ac51c2f10eaaaf5716c4/tk-framework-aliastranslations_v0.3.0.zip?response-content-disposition=filename%3D%22tk-framework-aliastranslations_v0.3.0.zip%22&x-amz-meta-user-id=42&x-amz-meta-user-type=ApiUser&X-Amz-Algorithm=AWS4-HMAC-SHA256&X-Amz-Credential=ASIAYJG6Z4JI54T4UPF5%2F20240403%2Fus-west-2%2Fs3%2Faws4_request&X-Amz-Date=20240403T171135Z&X-Amz-SignedHeaders=host&X-Amz-Expires=900&X-Amz-Security-Token=IQoJb3JpZ2luX2VjEFEaCXVzLWVhc3QtMSJGMEQCIFvWhm6nk8SGaEOXVp9QTH5E1BwGk2d2zSW4l9EaHAG2AiAtZJURqNJs9KEoDREbQ%2Bp8VjImAi4qXHum%2FLJejQlvrSqYAgh6EAAaDDU2OTU1MDQzMDgwMSIMUpxuafAVHI4NQZ4PKvUB7a5X67fUSnbbRNcii8WYIU8jzmLHj1uHod14zzEM4ugmmJU5yg9PHG3IJrocZqbWq9d2NVDOekhGq72muwFLxr1qEDpMmTXLQ3eyhsajzXdiOGIn%2BmNmXTYJB2jCj5hpVcO8J%2BW1N4Px%2BTziG50GWGIzmgJ3tQiC3LQ7o9iP3GCwwQnBEStH69qGsCgCNVNgs9I8q%2FxHiU46RKIfUg%2Fl9vyD6%2FQTRjKFo3MeXcExWp52MuyqLN%2FKQ1V1aCptQK0mVV0vnVjIOwDraVDN1Ka6yJGtNg2CAtyMo33h0ndAbDly2464n%2FSzkteBeTjIEvv4chqUJ5cwypG2sAY6ngEhNLzEcx5AylWAbSnqe8n6Mz0vzHl4Gmf0RHOnf3VEqxyh6UTG0dyvwBSUc0ni%2Fe%2F7PyHe%2FgNmkZbPP5f6nMwt8abnmlFurdDXLoc4koe7E0oq09tGGrGcQ07enMz5dGW3iBVFyQxhhS%2BzMOulmadcuyFiMCOYVVSMg4lfSq2cJauQV4qfaLUHtjYxAIa3ciLcLGUpzAznDPiV9wSbqw%3D%3D&X-Amz-Signature=f04dea02c2341656cf2c51fa3f3a1da53e4511feb2ff5fc9e2c9dfad53d07ff1
p29
sVname
p30
Vtk-framework-aliastranslations_v0.3.0.zip
p31
sVcontent_type
p32
Vapplication/zip
p33
sVlink_type
p34
Vupload
p35
sg13
VAttachment
p36
sg15
I32340
sss.