(dp0
Vsg_bundle_data
p1
(dp2
Vtype
p3
VCustomNonProjectEntity02
p4
sVid
p5
I17
sVsg_system_name
p6
Vtk-shotgun-launchpublish
p7
sVsg_status_list
p8
Vdepl
p9
sVsg_deprecation_message
p10
NssVsg_version_data
p11
(dp12
Vtype
p13
VCustomNonProjectEntity05
p14
sVid
p15
I6481
sVcode
p16
Vv0.7.0
p17
sVsg_status_list
p18
Vprod
p19
sVdescription
p20
VRebranding component for Flow Production Tracking
p21
sVtags
p22
(lp23
sVsg_detailed_release_notes
p24
NsVsg_documentation
p25
(dp26
Vurl
p27
Vhttps://developer.shotgridsoftware.com/219032908
p28
sVname
p29
VDocumentation
p30
sVcontent_type
p31
NsVlink_type
p32
Vweb
p33
sg13
VAttachment
p34
sg15
I32419
ssVsg_payload
p35
(dp36
g27
Vhttps://s3-proxy.shotgunstudio.com/d18c13bf0e59a9a82f18be518a1b6b508bcbd774/f67821f56cd6b28507c2b533cdb78dd806e0a735/tk-shotgun-launchpublish_v0.7.0.zip?response-content-disposition=filename%3D%22tk-shotgun-launchpublish_v0.7.0.zip%22&x-amz-meta-user-id=42&x-amz-meta-user-type=ApiUser&X-Amz-Algorithm=AWS4-HMAC-SHA256&X-Amz-Credential=ASIAYJG6Z4JIUJ37VZNS%2F20240403%2Fus-west-2%2Fs3%2Faws4_request&X-Amz-Date=20240403T171250Z&X-Amz-SignedHeaders=host&X-Amz-Expires=900&X-Amz-Security-Token=IQoJb3JpZ2luX2VjEFEaCXVzLWVhc3QtMSJIMEYCIQCw%2BzkRh9onI4M5YVPt2wq36HcGgngHuhniEppkbq31ZgIhAKHi%2FUDjSsMOsiH4hbG51WuSExuMZmWUpysxM7aVfqALKpgCCHoQABoMNTY5NTUwNDMwODAxIgypR22%2F7sqHynruycoq9QHzW%2B1CUhWbrNt%2F17J77N4g6k7T8MBzc5Kid%2Bqs35AgfLcgkzs8sN4wZe2sSuLygvmIbSZjbjnXSXugm4pdsOtba%2BDE%2FdfE%2BYI3IRTPtWWBtijdWkYJBHH3cgNKgiHAt8RYAyklve2g8fZDu%2BxxmjaBk%2FwQzECQrbbU4QDKophEO8dwhn23ae3%2BXVrLBa7whF0QWSZRYa4EbXHlH6TLG5kBtJhEr8B2LPauwFR4%2BsppA8XML2lMX9MD%2F0wMvQrxr8DKxi6RoQ0TvSXOoEn7b%2FlyAFFb3M%2BZsOqwg3PeOZRpHgogR0ixeStSUtP0j8hexvnlNQ5JFzD9i7awBjqcAXNDKwSdIHg96jpyKBziBMf%2BQuVJ5bq29zrNLqUf1TexSa01XjARCZ5Xz%2FhF%2FX0wemc045s70%2BxhmPLFXtPceEdNUgCDmw4BAgbTTe7N%2FWnU7sn%2FbcPAEWypaz%2BtcrQkY4YKbF4EjoJZ6GklB313UmnzcHNvcOiN0%2FSAmcmm1ppWQtsUIFrBJGElBPB0jDmUIA7LLNjoNGiOGkuYBg%3D%3D&X-Amz-Signature=99ebe9e1d8a02b46dd63184f9d36890f4ed677e5f760cc1ba3ef9a67b0029513
p37
sg29
Vtk-shotgun-launchpublish_v0.7.0.zip
p38
sg31
Vapplication/zip
p39
sg32
Vupload
p40
sg13
VAttachment
p41
sg15
I32420
sss.