(dp0
Vsg_bundle_data
p1
(dp2
Vtype
p3
VCustomNonProjectEntity07
p4
sVid
p5
I81
sVsg_system_name
p6
Vtk-config-default2
p7
sVsg_status_list
p8
Vhidden
p9
sVsg_deprecation_message
p10
NssVsg_version_data
p11
(dp12
Vtype
p13
VCustomNonProjectEntity08
p14
sVid
p15
I3744
sVcode
p16
Vv1.7.0
p17
sVsg_status_list
p18
Vprod
p19
sVdescription
p20
V[No wiki release notes found]
p21
sVtags
p22
(lp23
sVsg_detailed_release_notes
p24
NsVsg_documentation
p25
NsVsg_payload
p26
(dp27
Vurl
p28
Vhttps://s3-proxy.shotgunstudio.com/d18c13bf0e59a9a82f18be518a1b6b508bcbd774/bb0e6bfc66f1f8747d9b34b746612e7a34c6c587/tk-config-default2_v1.7.0.zip?response-content-disposition=filename%3D%22tk-config-default2_v1.7.0.zip%22&x-amz-meta-user-id=42&x-amz-meta-user-type=ApiUser&X-Amz-Algorithm=AWS4-HMAC-SHA256&X-Amz-Credential=ASIAYJG6Z4JIUJ37VZNS%2F20240403%2Fus-west-2%2Fs3%2Faws4_request&X-Amz-Date=20240403T170827Z&X-Amz-SignedHeaders=host&X-Amz-Expires=900&X-Amz-Security-Token=IQoJb3JpZ2luX2VjEFEaCXVzLWVhc3QtMSJIMEYCIQCw%2BzkRh9onI4M5YVPt2wq36HcGgngHuhniEppkbq31ZgIhAKHi%2FUDjSsMOsiH4hbG51WuSExuMZmWUpysxM7aVfqALKpgCCHoQABoMNTY5NTUwNDMwODAxIgypR22%2F7sqHynruycoq9QHzW%2B1CUhWbrNt%2F17J77N4g6k7T8MBzc5Kid%2Bqs35AgfLcgkzs8sN4wZe2sSuLygvmIbSZjbjnXSXugm4pdsOtba%2BDE%2FdfE%2BYI3IRTPtWWBtijdWkYJBHH3cgNKgiHAt8RYAyklve2g8fZDu%2BxxmjaBk%2FwQzECQrbbU4QDKophEO8dwhn23ae3%2BXVrLBa7whF0QWSZRYa4EbXHlH6TLG5kBtJhEr8B2LPauwFR4%2BsppA8XML2lMX9MD%2F0wMvQrxr8DKxi6RoQ0TvSXOoEn7b%2FlyAFFb3M%2BZsOqwg3PeOZRpHgogR0ixeStSUtP0j8hexvnlNQ5JFzD9i7awBjqcAXNDKwSdIHg96jpyKBziBMf%2BQuVJ5bq29zrNLqUf1TexSa01XjARCZ5Xz%2FhF%2FX0wemc045s70%2BxhmPLFXtPceEdNUgCDmw4BAgbTTe7N%2FWnU7sn%2FbcPAEWypaz%2BtcrQkY4YKbF4EjoJZ6GklB313UmnzcHNvcOiN0%2FSAmcmm1ppWQtsUIFrBJGElBPB0jDmUIA7LLNjoNGiOGkuYBg%3D%3D&X-Amz-Signature=8ffa52c6da1c399133f097de1792d7e1feb50dfdd0fa97d5110d6a0a43dc813f
p29
sVname
p30
Vtk-config-default2_v1.7.0.zip
p31
sVcontent_type
p32
Vapplication/zip
p33
sVlink_type
p34
Vupload
p35
sg13
VAttachment
p36
sg15
I32510
sss.