(dp0
Vsg_bundle_data
p1
(dp2
Vtype
p3
VCustomNonProjectEntity13
p4
sVid
p5
I3
sVsg_system_name
p6
Vtk-framework-shotgunutils
p7
sVsg_status_list
p8
Vdepl
p9
sVsg_deprecation_message
p10
NssVsg_version_data
p11
(dp12
Vtype
p13
VCustomNonProjectEntity09
p14
sVid
p15
I507
sVcode
p16
Vv4.4.15
p17
sVsg_status_list
p18
Vprod
p19
sVdescription
p20
VAll schema cache methods that accept entity type and field now handle bubble field notation
p21
sVtags
p22
(lp23
sVsg_detailed_release_notes
p24
(dp25
Vurl
p26
Vhttps://support.shotgunsoftware.com/hc/en-us/articles/219040008#v4.4.15
p27
sVname
p28
Vv4.4.15
p29
sVcontent_type
p30
NsVlink_type
p31
Vweb
p32
sg13
VAttachment
p33
sg15
I14974
ssVsg_documentation
p34
(dp35
g26
Vhttps://support.shotgunsoftware.com/hc/en-us/articles/219040008
p36
sg28
VDocumentation
p37
sg30
Nsg31
Vweb
p38
sg13
VAttachment
p39
sg15
I14976
ssVsg_payload
p40
(dp41
g26
Vhttps://s3-proxy.shotgunstudio.com/d18c13bf0e59a9a82f18be518a1b6b508bcbd774/499a0ea9caf57c7728609b6756639a80640649e0/tk-framework-shotgunutils_v4.4.15.zip?response-content-disposition=filename%3D%22tk-framework-shotgunutils_v4.4.15.zip%22&x-amz-meta-user-id=42&x-amz-meta-user-type=ApiUser&X-Amz-Algorithm=AWS4-HMAC-SHA256&X-Amz-Credential=ASIAYJG6Z4JIUQCWKVO2%2F20231004%2Fus-west-2%2Fs3%2Faws4_request&X-Amz-Date=20231004T171017Z&X-Amz-SignedHeaders=host&X-Amz-Expires=900&X-Amz-Security-Token=IQoJb3JpZ2luX2VjEEEaCXVzLWVhc3QtMSJGMEQCIB2dzon8JJNx%2FTUT%2B1cJ5wHjxGYfVKLUsuJhslfOJMjZAiBAciwbCSqtede33DELF09EleVl2mgzDuyOPC8QGrSdJyqYAghKEAAaDDU2OTU1MDQzMDgwMSIMoD3INZgWmrblQuXuKvUBzeduH5IkB3oUiUy%2BUYO8fZC2e5T94o5Ar%2Bwnq0%2FBl5LH8LdbVwMGQriAnH1%2BAG6yklfMPlq25v99v4v4C3iX%2Fzb4jQX2b2xfkLkl0CkH7XT0s%2FMOmusBcIUkbbFv2VXvaj43GvAU35YGmaBvirJZ7DpqY1UPUY4WSJyaizfhpua8Ar0bDK5NjcpZv%2FEoYBFFkm57eONrahoA7W0CFG%2F983IpjQOEiVC17d9cMsb8kRBfkjRH46VKPhw8GcCNoYHYo4Gf2UVo%2FaGrWUNWzBDXqebUFWpXBgJ1R5LK0q3rd5kXTjz%2BwkxWS1htZo8ttsREopfWx2Qw4bD2qAY6ngEhEJ%2FccCajWWqX7Vh6La5ARz7Q7A%2F4aJqGBQ9vv3JJ64mM1RA4tjXxuVZ3Gqd%2BQjRZWCmudRPafj%2FSKUDdnJMDbJETFcJG%2FX8zrt6W%2F%2BdJppX6u1SCfqQX3vAByp6OsP%2FZinCzJuC6A58xH1Kf5bL7%2Fz9bq25oISH13kreQDIngKoJDnqIa5nFtF2fhFHrpFbdkCm0tRR77eprc%2FkjIA%3D%3D&X-Amz-Signature=608e64c1df60f0112d944879af7520c33b75ad70714e62df266a28c9f5398170
p42
sg28
Vtk-framework-shotgunutils_v4.4.15.zip
p43
sg30
Vapplication/zip
p44
sg31
Vupload
p45
sg13
VAttachment
p46
sg15
I14977
sss.