(dp0
Vsg_bundle_data
p1
(dp2
Vtype
p3
VCustomNonProjectEntity13
p4
sVid
p5
I117
sVsg_system_name
p6
Vtk-framework-lmv
p7
sVsg_status_list
p8
Vdepl
p9
sVsg_deprecation_message
p10
NssVsg_version_data
p11
(dp12
Vtype
p13
VCustomNonProjectEntity09
p14
sVid
p15
I2302
sVcode
p16
Vv0.2.2
p17
sVsg_status_list
p18
Vprod
p19
sVdescription
p20
VUpdated brand icons.
p21
sVtags
p22
(lp23
sVsg_detailed_release_notes
p24
(dp25
Vurl
p26
Vhttps://community.shotgridsoftware.com/t/a-new-version-of-tk-framework-lmv-has-been-released/14121/4
p27
sVname
p28
Vv0.2.2
p29
sVcontent_type
p30
NsVlink_type
p31
Vweb
p32
sg13
VAttachment
p33
sg15
I27883
ssVsg_documentation
p34
NsVsg_payload
p35
(dp36
g26
Vhttps://s3-proxy.shotgunstudio.com/d18c13bf0e59a9a82f18be518a1b6b508bcbd774/d18e09fcd9b838956396fea30d13d48c2c71477b/tk-framework-lmv_v0.2.2.zip?response-content-disposition=filename%3D%22tk-framework-lmv_v0.2.2.zip%22&x-amz-meta-user-id=42&x-amz-meta-user-type=ApiUser&X-Amz-Algorithm=AWS4-HMAC-SHA256&X-Amz-Credential=ASIAYJG6Z4JIR6QTLBVY%2F20231004%2Fus-west-2%2Fs3%2Faws4_request&X-Amz-Date=20231004T171235Z&X-Amz-SignedHeaders=host&X-Amz-Expires=900&X-Amz-Security-Token=IQoJb3JpZ2luX2VjEEEaCXVzLWVhc3QtMSJGMEQCIDXsNsiFLU%2BjhfRpuqkNOGrk2Uvq%2BVxbsjmY5xf6KZ7mAiARTs1Zv9n1SNsTsGeZO3WB5ar7tf3evyvF38kKq4RFwyqYAghKEAAaDDU2OTU1MDQzMDgwMSIMiTnIDM1a38PQsvSyKvUBtcRwmiBjyqu8hxZ1WyUF%2BtD7MgwCrUnhoM1xpqk4%2FprmaZmaIKNcUelGqpX3wO3yysxN5dmbz0A7r959QUlI0JiWIBwobs14GukUGQUqxs8j%2FsfYDCnGw%2BYU7tifMY7n1y55w1Ef85kcjKx1UszXEFz99CeVdILKKlQa0GA8eFFEVFs1pTuLbwoxcLFLa2IVOMj26dgDsemraYh5q5%2B8w22K4sz%2Bos4Ily6br6WI7%2BKgk8bABxS9Fmrc6EDUe5yWAMBaqCwH8lUHbUXzhwn%2Bw%2B3YJCMgHfA1WsshthaCitwPQ1Cdbc%2FdLa25p2lRFXDni6NsbJMw97X2qAY6ngFNb0YEe99VOQHBMrzapzKuAamXn9Y4YapYDXMyUqfBQ3SZz4s9Z5%2Bue60oLbxMy5arfEalqXdb0mGXBYUpHXHQyYR5D0s66gNlomljVl44kMdWxU%2FY%2F1C7c%2BqRcMF%2FAFoMd0IySDnrvCPA58DWoC%2FCbYFoAJTifd9C4%2BmObxKMOd%2BqBSbiedzMkyP54MNZJ7uLXQjBsL16StOTmAKefg%3D%3D&X-Amz-Signature=8de1c6d4dc5a202b1a8552550f17568b8015e834ec564c12b8353fb23c73b0c7
p37
sg28
Vtk-framework-lmv_v0.2.2.zip
p38
sg30
Vapplication/zip
p39
sg31
Vupload
p40
sg13
VAttachment
p41
sg15
I27822
sss.