(dp0
Vsg_bundle_data
p1
(dp2
Vtype
p3
VCustomNonProjectEntity03
p4
sVid
p5
I16
sVsg_system_name
p6
Vtk-3dsmaxplus
p7
sVsg_status_list
p8
Vhidden
p9
sVsg_deprecation_message
p10
VThe tk-3dsmaxplus engine has been deprecated. We recommend that you upgrade your configuration to the new tk-3dsmax (https://github.com/shotgunsoftware/tk-3dsmax) engine. Versions of 3dsMax 2021 and up will only be supported by the new engine. Visit https://developer.shotgunsoftware.com/tk-3dsmax if you want to learn more on how to migrate your environment to the new engine.
p11
ssVsg_version_data
p12
(dp13
Vtype
p14
VCustomNonProjectEntity04
p15
sVid
p16
I3058
sVcode
p17
Vv0.6.2
p18
sVsg_status_list
p19
Vprod
p20
sVdescription
p21
VShotGrid branding updates.
p22
sVtags
p23
(lp24
sVsg_detailed_release_notes
p25
(dp26
Vurl
p27
Vhttps://community.shotgridsoftware.com/t/a-new-version-of-tk-3dsmaxplus-has-been-released/14114/4
p28
sVname
p29
Vv0.6.2
p30
sVcontent_type
p31
NsVlink_type
p32
Vweb
p33
sg14
VAttachment
p34
sg16
I27870
ssVsg_documentation
p35
(dp36
g27
Vhttps://developer.shotgridsoftware.com/219050628
p37
sg29
VDocumentation
p38
sg31
Nsg32
Vweb
p39
sg14
VAttachment
p40
sg16
I27789
ssVsg_payload
p41
(dp42
g27
Vhttps://s3-proxy.shotgunstudio.com/d18c13bf0e59a9a82f18be518a1b6b508bcbd774/af11f27a235b2679855298c5105c352a782764de/tk-3dsmaxplus_v0.6.2.zip?response-content-disposition=filename%3D%22tk-3dsmaxplus_v0.6.2.zip%22&x-amz-meta-user-id=42&x-amz-meta-user-type=ApiUser&X-Amz-Algorithm=AWS4-HMAC-SHA256&X-Amz-Credential=ASIAYJG6Z4JIXPCYSCUU%2F20231004%2Fus-west-2%2Fs3%2Faws4_request&X-Amz-Date=20231004T170830Z&X-Amz-SignedHeaders=host&X-Amz-Expires=900&X-Amz-Security-Token=IQoJb3JpZ2luX2VjEEEaCXVzLWVhc3QtMSJHMEUCIQDcRz4EfsxHxoifeVjMI9wKIBVV2TIoP19FP3zngWnLOgIgRLq%2F4fHeQWpYW7cqW2QSBJjnfmYriQoW2MUEXgLRcz0qmAIIShAAGgw1Njk1NTA0MzA4MDEiDBN%2F3%2BR7TXOSLYsOQSr1AbmnEkSbdySkG5qnb%2Bxy%2FC7deXt8ZBoBPfbzEyEJdI3J9ezJecct3L5zh5jIPlMV4oJF7Tci%2BBXNcQFGFVx5fQjSo67ipZlanrhp%2FBR9MwsdCZ9v%2FdQj49HoOwpeClCsKNDUg0IpCW2p59RvXr51vfPvj%2F%2FsB2GW%2By8rryNxajwy%2Fjfnu9pEDiFU2IV%2BdMSo19UIo8MzJ0lOjGYIsPOAlCS2335RyrNP4OrkusSKGtd4aqxVx4yMBtRZ6EKPL%2Be5nEudAHcUdiTqpitOht1XUSUUQ%2FiHuT6Xnv6c54MAe9U8DONuxxwxk7YR8scokJ%2FuqDzODJyaMMus9qgGOp0BnID4ZTC9ca4FGu%2F6j8%2FoEwJDRDyY5jJbCPI9EDgcS8liDhOgfKwFWm3q%2B5zbhFYEnWfEJOE%2BW1rEeCpbdzqblVfIrsT6OBLO%2BH%2BFPnrXkOHhaYMWAL6zz5C6AaT3jvkDUkmaFkVkOQTYzJIn%2Bvy6y9eNxHuT92xWSKOhMos8rkBRoAdIFA8Y%2FbEwHNpg795ShXSF2HUY3AlUIG%2BJMQ%3D%3D&X-Amz-Signature=6604a46664567a6d6b06bf32d980db32c6e8e5f3a2a6d9372c58118eee25a3c2
p43
sg29
Vtk-3dsmaxplus_v0.6.2.zip
p44
sg31
Vapplication/zip
p45
sg32
Vupload
p46
sg14
VAttachment
p47
sg16
I27790
sss.