(dp0
Vsg_bundle_data
p1
(dp2
Vtype
p3
VCustomNonProjectEntity02
p4
sVid
p5
I58
sVsg_system_name
p6
Vtk-hiero-openinshotgun
p7
sVsg_status_list
p8
Vdepl
p9
sVsg_deprecation_message
p10
NssVsg_version_data
p11
(dp12
Vtype
p13
VCustomNonProjectEntity05
p14
sVid
p15
I6465
sVcode
p16
Vv0.5.0
p17
sVsg_status_list
p18
Vprod
p19
sVdescription
p20
VRebranding component for Flow Production Tracking
p21
sVtags
p22
(lp23
sVsg_detailed_release_notes
p24
NsVsg_documentation
p25
(dp26
Vurl
p27
Vhttps://developer.shotgridsoftware.com/219039958
p28
sVname
p29
VDocumentation
p30
sVcontent_type
p31
NsVlink_type
p32
Vweb
p33
sg13
VAttachment
p34
sg15
I32348
ssVsg_payload
p35
(dp36
g27
Vhttps://s3-proxy.shotgunstudio.com/d18c13bf0e59a9a82f18be518a1b6b508bcbd774/f66a59614eaf859f66013681ec54e1c00e92c298/tk-hiero-openinshotgun_v0.5.0.zip?response-content-disposition=filename%3D%22tk-hiero-openinshotgun_v0.5.0.zip%22&x-amz-meta-user-id=42&x-amz-meta-user-type=ApiUser&X-Amz-Algorithm=AWS4-HMAC-SHA256&X-Amz-Credential=ASIAYJG6Z4JITHURUGP4%2F20240403%2Fus-west-2%2Fs3%2Faws4_request&X-Amz-Date=20240403T171244Z&X-Amz-SignedHeaders=host&X-Amz-Expires=900&X-Amz-Security-Token=IQoJb3JpZ2luX2VjEFEaCXVzLWVhc3QtMSJIMEYCIQCZ7YExu9vZ41f7l4dA%2FokO%2B8d4vMBryv8WQ%2FI%2BNkXDJQIhAPScORrhraMJoLXlCVTTO697qFiJ%2F%2BMOJQROx2O%2FShEyKpgCCHoQABoMNTY5NTUwNDMwODAxIgz01lo%2FNiFBjBtnudEq9QFbDQLmjRCNqGxXmR80XDpC9hP2Zk8K3a24YF%2FpgLCHI7DO4GYDxQ48ukE3hOXoTtQ2bfTI0tOpxo0hA7ei89F9h%2FjHHtWYpaP2mIsND6zs4iQjMNie8%2BbmgPYyZ1EBZ1Z4Dck7CfGnMJ5%2BkCITzUzeIEg37SA%2FrU438nzC0BMSHzaUCTj7VmBMA66icDPvGPIItvDQ3JI1NMLIqWRvRce02pKgOb80qOSPC8msWkzsJw8aTXbDGe2DHza1sByzI6VEE%2BQzvR81aqiWpxYtohwUP9X69d5JtMJAI1HDKboVZ6ctH6AnYlugvEjtgEkT62nXo5N88DCfkbawBjqcAdweL5XbYsR854isj%2B%2Fh6C3Wc%2FGkZjvtRdhdt%2F8L2fnIi3wz2tRLK1UxWbmcnkk1zM7ZlQF3VxzbNl5KiogWbHrTZwVutXKnpjKvdQhajKelaGxyPennKUSGEi7AmcyABCygQFEkVt7PtADCrKxPTWCs1qJLB1ptAQPQ7MMFLUGF%2FUMIIJDbK3QCFEho%2FAf2La9Don3VuwL%2BHNjlWQ%3D%3D&X-Amz-Signature=36a110b76ef75ac87bb0c32da7612443660b6c0b69561b520bf3370f9f78fd55
p37
sg29
Vtk-hiero-openinshotgun_v0.5.0.zip
p38
sg31
Vapplication/zip
p39
sg32
Vupload
p40
sg13
VAttachment
p41
sg15
I32349
sss.