(dp0
Vsg_bundle_data
p1
(dp2
Vtype
p3
VCustomNonProjectEntity02
p4
sVid
p5
I155
sVsg_system_name
p6
Vtk-multi-pythonconsole
p7
sVsg_status_list
p8
Vdepl
p9
sVsg_deprecation_message
p10
NssVsg_version_data
p11
(dp12
Vtype
p13
VCustomNonProjectEntity05
p14
sVid
p15
I6488
sVcode
p16
Vv1.4.0
p17
sVsg_status_list
p18
Vprod
p19
sVdescription
p20
VRebranding component for Flow Production Tracking
p21
sVtags
p22
(lp23
sVsg_detailed_release_notes
p24
NsVsg_documentation
p25
(dp26
Vurl
p27
Vhttps://developer.shotgridsoftware.com/219033108
p28
sVname
p29
VDocumentation
p30
sVcontent_type
p31
NsVlink_type
p32
Vweb
p33
sg13
VAttachment
p34
sg15
I32444
ssVsg_payload
p35
(dp36
g27
Vhttps://s3-proxy.shotgunstudio.com/d18c13bf0e59a9a82f18be518a1b6b508bcbd774/77ef9fb7b84290574742aebf405743214c9e9e5d/tk-multi-pythonconsole_v1.4.0.zip?response-content-disposition=filename%3D%22tk-multi-pythonconsole_v1.4.0.zip%22&x-amz-meta-user-id=42&x-amz-meta-user-type=ApiUser&X-Amz-Algorithm=AWS4-HMAC-SHA256&X-Amz-Credential=ASIAYJG6Z4JIVYHWNDV6%2F20240403%2Fus-west-2%2Fs3%2Faws4_request&X-Amz-Date=20240403T171034Z&X-Amz-SignedHeaders=host&X-Amz-Expires=900&X-Amz-Security-Token=IQoJb3JpZ2luX2VjEFEaCXVzLWVhc3QtMSJHMEUCIGSG8OCwZ433Z%2FskE6m%2F%2F5Iavd5OHIn56gLnFBeI608jAiEAir%2FyJ1uucERgmZ0LXVsDVHspilIIK4GlK6Qtw3yNW1AqmAIIehAAGgw1Njk1NTA0MzA4MDEiDAsWsBY8rKyzEL0P4Cr1Ad38NIUW0xM9VSezFgSZWes6MvhhktSNmd456%2B3cpfRdk5N20F6gdCTJUNzqhzCQGrfWDzQiCyiU1kjqMseC5hSeOqmtc3LMu7YQdemp4%2BI7k4KAfptLxza7NgjDKy4IRJ%2FImusw%2Fp5PFugAog1PNUpDMmvxvbPdP3vYqv8BT0eHCvjFqMqZpZRPkXbr5NSQtqOqpXDDuW25UbjiVopasyPlqC2%2F7ZiMunVXXSvtadezdUsg5laP%2FOR5Sd27BbLA7rv2x4oFVsPQc6u2OMlztFtWLa1QoDtMykQtGEL%2FwTL0C%2FKMC06qTbPmmggqP8pxXpGoyjuKMN2PtrAGOp0B54sGfvL%2B%2BayVSJNacurG%2BTZ3bSjb0k9sVnppHt1UjOWPzO4Icx5ia349hCMA%2F%2Fs%2BkhCLmU9SMr2wCovhQGhBWIA%2FWGXrfZT%2Fyt%2FPQardggYVsnzCbCgiH565gbEdHRcJq7cHCjbRxKi5CZZ4dVW2ZPCJhf19nIRzo84HExDcPZnb3cHveoQeZDRuted%2Ff39UkLyQ%2BNPgqYH8rg74mA%3D%3D&X-Amz-Signature=30e167fd00101d37ef929397e0dabc8e970b318015d6a03d20ee121351fcd74e
p37
sg29
Vtk-multi-pythonconsole_v1.4.0.zip
p38
sg31
Vapplication/zip
p39
sg32
Vupload
p40
sg13
VAttachment
p41
sg15
I32445
sss.