(dp0
Vsg_bundle_data
p1
(dp2
Vtype
p3
VCustomNonProjectEntity02
p4
sVid
p5
I129
sVsg_system_name
p6
Vtk-multi-loader2
p7
sVsg_status_list
p8
Vdepl
p9
sVsg_deprecation_message
p10
NssVsg_version_data
p11
(dp12
Vtype
p13
VCustomNonProjectEntity05
p14
sVid
p15
I6475
sVcode
p16
Vv1.24.0
p17
sVsg_status_list
p18
Vprod
p19
sVdescription
p20
VRebranding component for Flow Production Tracking
p21
sVtags
p22
(lp23
sVsg_detailed_release_notes
p24
NsVsg_documentation
p25
(dp26
Vurl
p27
Vhttps://developer.shotgridsoftware.com/219033078
p28
sVname
p29
VDocumentation
p30
sVcontent_type
p31
NsVlink_type
p32
Vweb
p33
sg13
VAttachment
p34
sg15
I32390
ssVsg_payload
p35
(dp36
g27
Vhttps://s3-proxy.shotgunstudio.com/d18c13bf0e59a9a82f18be518a1b6b508bcbd774/179ff2bf68129671c699d9c02e181e221d5bd45e/tk-multi-loader2_v1.24.0.zip?response-content-disposition=filename%3D%22tk-multi-loader2_v1.24.0.zip%22&x-amz-meta-user-id=42&x-amz-meta-user-type=ApiUser&X-Amz-Algorithm=AWS4-HMAC-SHA256&X-Amz-Credential=ASIAYJG6Z4JIXE4DYK2M%2F20240403%2Fus-west-2%2Fs3%2Faws4_request&X-Amz-Date=20240403T171205Z&X-Amz-SignedHeaders=host&X-Amz-Expires=900&X-Amz-Security-Token=IQoJb3JpZ2luX2VjEFEaCXVzLWVhc3QtMSJGMEQCIHUtEOcvYuP6RFSVxexecm7Ri5igSLbJBFxd72WLNKgMAiBmzWIIOfZrUynPpR3S6f3K8u8IIAqLtNctFmQ9YgF1ByqYAgh6EAAaDDU2OTU1MDQzMDgwMSIM%2Bvy8qIwv73AFDgS3KvUB07Nx48Aw4RA7%2BuKECgYMTJotKv28GUIepF3vzuJzUecN85XKIBRmWocsVGXN89eV8vuwvsFxQy1cLdEU8wGTUVe3uHv2NkLlLmV5a6XZsfXA1oS%2B1lB%2F5DuzMFpF%2BY%2FDpQNv7%2FNyN21ib2budwJbXzzTWfDTh40%2FGX5RY7JIaQ54h%2BUs0yQ%2BfbF1Q9uu%2FIdrdHn0PMaX6JtkxIKoYRkARB9c7SNRSqlIRaWZzNBSShlGoixye%2BYMcMpj3AL6EMq2SvbW9wdJ%2B4fmcefTO%2FKykGbf8FTBNXEKg1Ukq%2FZ90c8%2BxOAq8PXbgUaAYy28%2FsIpB5SdGMEwxoy2sAY6ngGYvJXi8BBbJ%2FqVNS1XpBifM4JhjuYTtDHte68vEoYItivzktXWV%2Bf5D%2FtbLSe8es%2BeGTEcl2hGSJxnfhntDm5BtT7KBVQ4adCvyYehv84Opw9ToTQ5X%2F0qfYp%2BzCIZaRL7JDldmt5XZQp2DSe4PKRXzkNCWDvlgJu1toJwqd2pRBuEsL%2FxatyAqkTUZJLphxp8wvlnj88dvEDL%2BW%2B6iA%3D%3D&X-Amz-Signature=9a183878450ec45d1bd2082ce46b7d9990818d8addb60a9d2f50877982aea094
p37
sg29
Vtk-multi-loader2_v1.24.0.zip
p38
sg31
Vapplication/zip
p39
sg32
Vupload
p40
sg13
VAttachment
p41
sg15
I32391
sss.